(dp0
S'3516298234903214826'
p1
(dp2
S'gender'
p3
S'm'
p4
sS'age'
p5
I123
sS'name'
p6
S'r'
p7
sS'dir'
p8
S'Sessions/raghavan-3516298234903214826/'
p9
sS'email'
p10
S'raghavan'
p11
ssS'05112756823836571821'
p12
(dp13
S'gender'
p14
S'm'
p15
sS'age'
p16
I20
sS'name'
p17
S'sagar'
p18
sS'dir'
p19
S'Sessions/sagar-05112756823836571821/'
p20
sS'email'
p21
S'sagar'
p22
ss.