(dp0
S'5354972498224066993'
p1
(dp2
S'gender'
p3
S'm'
p4
sS'age'
p5
I123
sS'name'
p6
S''
p7
sS'dir'
p8
S'Sessions/5354972498224066993/'
p9
sS'email'
p10
S'raghav'
p11
ssS'0432790492496540939'
p12
(dp13
S'gender'
p14
S'm'
p15
sS'age'
p16
I20
sS'name'
p17
S'h'
p18
sS'dir'
p19
S'Sessions/0432790492496540939/'
p20
sS'email'
p21
S'hemaditya'
p22
ssS'14592043891'
p23
(dp24
S'gender'
p25
S'm'
p26
sS'age'
p27
I12
sS'name'
p28
S'r'
p29
sS'dir'
p30
S'Sessions/14592043891'
p31
sS'email'
p32
g29
ssS'08026819275734822041'
p33
(dp34
S'gender'
p35
S'm'
p36
sS'age'
p37
I18
sS'name'
p38
S'raghavendra'
p39
sS'dir'
p40
S'Sessions/08026819275734822041'
p41
sS'email'
p42
S'raghavendragaleppa'
p43
ss.